target datalayout = "e-m:e-p270:32:32-p271:32:32-p272:64:64-i64:64-i128:128-f80:128-n8:16:32:64-S128"
target triple = "x86_64-pc-linux-gnu"

@.str.15 = private unnamed_addr constant [6 x i8] c"%s/%s\00", align 1

; Function Attrs: null_pointer_is_valid sspstrong uwtable
define internal ptr @extcap_get_extcap_paths_from_dir(ptr noundef %0, ptr noundef %1) #0 {
  %3 = alloca ptr, align 8
  %4 = alloca ptr, align 8
  %5 = alloca ptr, align 8
  %6 = alloca ptr, align 8
  %7 = alloca ptr, align 8
  %8 = alloca ptr, align 8
  store ptr %0, ptr %3, align 8
  store ptr %1, ptr %4, align 8
  call void @llvm.lifetime.start.p0(i64 8, ptr %5) #9
  call void @llvm.lifetime.start.p0(i64 8, ptr %6) #9
  call void @llvm.lifetime.start.p0(i64 8, ptr %7) #9
  %9 = load ptr, ptr %3, align 8
  store ptr %9, ptr %7, align 8
  %10 = load ptr, ptr %4, align 8
  %11 = call ptr @g_dir_open(ptr noundef %10, i32 noundef 0, ptr noundef null)
  store ptr %11, ptr %5, align 8
  %12 = icmp ne ptr %11, null
  br i1 %12, label %13, label %38

13:                                               ; preds = %2
  br label %14

14:                                               ; preds = %35, %13
  %15 = load ptr, ptr %5, align 8
  %16 = call ptr @g_dir_read_name(ptr noundef %15)
  store ptr %16, ptr %6, align 8
  %17 = icmp ne ptr %16, null
  br i1 %17, label %18, label %36

18:                                               ; preds = %14
  call void @llvm.lifetime.start.p0(i64 8, ptr %8) #9
  %19 = load ptr, ptr %4, align 8
  %20 = load ptr, ptr %6, align 8
  %21 = call noalias ptr (ptr, ptr, ...) @wmem_strdup_printf(ptr noundef null, ptr noundef @.str.15, ptr noundef %19, ptr noundef %20)
  store ptr %21, ptr %8, align 8
  %22 = load ptr, ptr %8, align 8
  %23 = call i32 @g_file_test(ptr noundef %22, i32 noundef 1)
  %24 = icmp ne i32 %23, 0
  br i1 %24, label %25, label %33

25:                                               ; preds = %18
  %26 = load ptr, ptr %8, align 8
  %27 = call i32 @g_file_test(ptr noundef %26, i32 noundef 8)
  %28 = icmp ne i32 %27, 0
  br i1 %28, label %29, label %33

29:                                               ; preds = %25
  %30 = load ptr, ptr %7, align 8
  %31 = load ptr, ptr %8, align 8
  %32 = call ptr @g_slist_append(ptr noundef %30, ptr noundef %31)
  store ptr %32, ptr %7, align 8
  br label %35

33:                                               ; preds = %25, %18
  %34 = load ptr, ptr %8, align 8
  call void @g_free(ptr noundef %34)
  br label %35

35:                                               ; preds = %33, %29
  call void @llvm.lifetime.end.p0(i64 8, ptr %8) #9
  br label %14, !llvm.loop !32

36:                                               ; preds = %14
  %37 = load ptr, ptr %5, align 8
  call void @g_dir_close(ptr noundef %37)
  br label %38

38:                                               ; preds = %36, %2
  %39 = load ptr, ptr %7, align 8
  call void @llvm.lifetime.end.p0(i64 8, ptr %7) #9
  call void @llvm.lifetime.end.p0(i64 8, ptr %6) #9
  call void @llvm.lifetime.end.p0(i64 8, ptr %5) #9
  ret ptr %39
}