; Function Attrs: null_pointer_is_valid sspstrong uwtable
define internal fastcc ptr @extcap_get_extcap_paths_from_dir(ptr noundef %0, ptr noundef %1) unnamed_addr #0 {
  %3 = tail call ptr @g_dir_open(ptr noundef %1, i32 noundef 0, ptr noundef null)
  %.not = icmp eq ptr %3, null
  br i1 %.not, label %15, label %.preheader

.preheader:                                       ; preds = %2
  %4 = tail call ptr @g_dir_read_name(ptr noundef nonnull %3)
  %.not1316 = icmp eq ptr %4, null
  br i1 %.not1316, label %._crit_edge, label %.lr.ph

.lr.ph:                                           ; preds = %.preheader, %13
  %5 = phi ptr [ %14, %13 ], [ %4, %.preheader ]
  %.117 = phi ptr [ %.2, %13 ], [ %0, %.preheader ]
  %6 = tail call noalias ptr (ptr, ptr, ...) @wmem_strdup_printf(ptr noundef null, ptr noundef nonnull @.str.15, ptr noundef %1, ptr noundef nonnull %5)
  %7 = tail call i32 @g_file_test(ptr noundef %6, i32 noundef 1)
  %.not14 = icmp eq i32 %7, 0
  br i1 %.not14, label %12, label %8

8:                                                ; preds = %.lr.ph
  %9 = tail call i32 @g_file_test(ptr noundef %6, i32 noundef 8)
  %.not15 = icmp eq i32 %9, 0
  br i1 %.not15, label %12, label %10

10:                                               ; preds = %8
  %11 = tail call ptr @g_slist_append(ptr noundef %.117, ptr noundef %6)
  br label %13

12:                                               ; preds = %8, %.lr.ph
  tail call void @g_free(ptr noundef %6)
  br label %13

13:                                               ; preds = %12, %10
  %.2 = phi ptr [ %11, %10 ], [ %.117, %12 ]
  %14 = tail call ptr @g_dir_read_name(ptr noundef nonnull %3)
  %.not13 = icmp eq ptr %14, null
  br i1 %.not13, label %._crit_edge, label %.lr.ph, !llvm.loop !33

._crit_edge:                                      ; preds = %13, %.preheader
  %.1.lcssa = phi ptr [ %0, %.preheader ], [ %.2, %13 ]
  tail call void @g_dir_close(ptr noundef nonnull %3)
  br label %15

15:                                               ; preds = %._crit_edge, %2
  %.0 = phi ptr [ %.1.lcssa, %._crit_edge ], [ %0, %2 ]
  ret ptr %.0
}